Certificate:
    Data:
        Version: 3 (0x2)
        Serial Number:
            25:94:dc:48:ce:32:bd:4d:c9:b5:31:05:4f:18:63:13:d7:c2:f9:ff
        Signature Algorithm: sha256WithRSAEncryption
        Issuer: C = NA, ST = None, L = None, CN = test.stagemole.eu, O = TestMullvad
        Validity
            Not Before: Aug  1 13:54:50 2023 GMT
            Not After : Jul 31 13:54:50 2024 GMT
        Subject: C = NA, ST = None, L = None, CN = test.stagemole.eu, O = TestMullvad
        Subject Public Key Info:
            Public Key Algorithm: rsaEncryption
                Public-Key: (4096 bit)
                Modulus:
                    00:c5:f9:26:a7:ea:77:d3:a4:dc:79:31:13:c1:be:
                    c5:2d:59:8d:07:14:09:bc:e4:06:c4:e7:91:16:1b:
                    ae:31:26:76:84:10:7d:89:b3:dd:c6:a3:79:c6:0c:
                    fe:1f:dd:fe:62:26:21:9d:c9:08:40:94:b8:9a:3c:
                    1c:ce:4c:fe:dc:ac:d7:fe:47:84:53:94:e5:2b:07:
                    13:3e:85:7b:83:3e:0e:f7:13:6c:65:f0:da:9d:26:
                    bd:c4:b8:16:53:6b:8e:38:d0:ef:53:f0:35:54:0f:
                    d3:dc:89:1c:20:fa:35:84:fe:ed:ee:f0:1e:54:9e:
                    09:76:95:62:f7:1a:69:7c:fa:47:88:f8:ca:75:90:
                    e2:b0:af:d3:18:d9:e2:64:95:73:1f:09:e5:4e:aa:
                    d3:68:c9:96:83:c3:74:82:52:c3:cb:89:95:d1:32:
                    c2:cb:ec:2c:a0:de:6a:55:9a:66:2a:c8:c4:08:09:
                    5e:3d:68:b5:87:fa:dc:e6:ce:71:47:ed:5b:f5:df:
                    12:23:27:a2:78:15:ea:bb:72:b7:3d:7e:6a:cf:20:
                    0a:76:3a:3f:d9:d7:ee:65:30:66:f5:f2:f2:11:93:
                    d4:dd:92:33:0d:c5:db:6e:67:02:7d:d8:6b:a7:bf:
                    c6:9e:ec:17:68:18:c0:7d:84:63:ac:f6:7b:f6:8d:
                    de:b4:46:c2:1f:97:6e:ea:05:dc:b2:4d:73:32:03:
                    c4:9f:d5:c4:ab:97:ad:17:16:88:27:ae:aa:93:13:
                    81:51:eb:d5:70:9f:08:b6:45:77:ca:02:42:a2:60:
                    95:da:bb:63:45:78:67:94:8d:28:c4:3e:74:81:79:
                    3e:77:0e:e8:81:9c:75:f4:53:b4:9f:9e:ba:c7:bd:
                    b7:7e:a1:3c:41:fa:4c:94:af:c0:ae:a3:ca:e7:b4:
                    7e:8a:50:7e:de:a7:b6:69:f5:17:f8:2b:9b:1a:ae:
                    ec:a0:e2:46:49:0d:39:1c:5c:6d:c5:69:2c:b3:fd:
                    9d:fd:11:6c:8a:bc:7f:8a:15:ca:ed:07:c1:eb:d7:
                    1d:cb:dc:7a:8d:58:b4:83:1c:74:ed:37:ca:e0:68:
                    9a:ce:ae:70:e7:4d:4b:bc:82:6a:59:6e:a7:0d:9c:
                    79:28:46:96:9e:f8:56:49:50:f3:d6:32:b0:10:c2:
                    21:ee:d4:c8:fe:7e:6d:b2:c4:91:3b:60:4d:14:6f:
                    82:21:d5:1c:30:3e:5c:d9:94:e7:cc:17:32:d2:f4:
                    7d:31:7f:ba:7c:02:74:98:75:c0:48:b3:05:c3:29:
                    12:33:94:1f:45:12:5c:76:4a:a6:b7:6a:6b:51:8f:
                    62:e4:53:b4:95:95:81:4a:d7:d6:a9:44:51:73:f2:
                    d1:24:a9
                Exponent: 65537 (0x10001)
        X509v3 extensions:
            X509v3 Subject Key Identifier:
                87:81:07:76:DE:E5:B1:71:75:9F:C9:91:90:91:12:97:8F:92:12:A7
            X509v3 Authority Key Identifier:
                87:81:07:76:DE:E5:B1:71:75:9F:C9:91:90:91:12:97:8F:92:12:A7
            X509v3 Basic Constraints: critical
                CA:TRUE
    Signature Algorithm: sha256WithRSAEncryption
    Signature Value:
        7d:76:4c:6b:57:8e:b4:82:3f:00:95:eb:9d:81:eb:9e:be:5c:
        60:c7:af:39:ed:c3:f3:45:78:5a:af:83:c7:a1:fd:38:6e:87:
        66:9e:66:39:da:9b:d7:21:31:d7:0f:a3:d2:26:12:81:f0:4f:
        ca:61:66:26:3c:54:b0:05:e4:68:6b:e9:45:77:6e:f6:28:dd:
        74:18:66:05:4e:59:a6:eb:eb:5c:85:5e:e1:51:ce:7b:91:0f:
        d4:e5:e4:09:d2:6a:a6:2c:99:40:fa:b6:c2:22:e7:78:de:7a:
        7a:1a:fb:54:f2:80:00:bc:ee:5b:91:29:9b:74:24:04:c0:c3:
        62:81:f2:2d:8f:b8:af:07:88:4e:c9:ef:02:ae:9d:d7:fb:5a:
        bf:8d:26:98:e5:8a:fc:b6:0e:b4:89:fa:8e:ab:5f:2a:d7:23:
        27:db:02:f8:5d:c8:62:90:a3:48:f6:8d:5f:b6:ac:be:16:22:
        a0:c7:32:d1:99:42:a0:f4:fe:40:f7:0d:80:26:28:99:50:f8:
        32:a1:7f:58:29:cc:e2:ea:c1:7a:05:cd:7f:6e:c3:b0:f7:bc:
        53:b3:fe:74:72:0d:fd:78:a4:84:d2:d4:2f:4a:04:09:d0:82:
        69:f9:3a:ae:40:86:4d:72:e4:a5:67:12:28:58:89:ea:07:01:
        73:e6:7b:a3:e1:90:c0:d4:e8:73:ff:49:df:c7:39:33:e1:23:
        c6:5b:80:19:9a:8d:1a:fc:c9:4c:ab:93:e6:ce:4b:c7:3d:80:
        39:bc:19:fa:5a:82:2c:db:d0:1d:2c:05:45:d4:01:6e:cd:54:
        e2:6f:8f:2d:a9:83:d7:30:d5:e4:6c:bc:af:be:d4:10:60:a0:
        be:d8:79:e5:eb:02:09:38:c2:92:81:2e:59:e7:88:70:61:f3:
        50:10:89:40:45:1b:e0:df:74:fe:fd:dd:2b:2a:68:a1:8b:8a:
        e8:28:44:2e:07:1c:e3:e5:03:e0:35:ab:25:c8:3a:84:0d:47:
        67:e7:39:14:47:db:8e:8a:47:ae:fe:2d:55:59:4f:06:17:a0:
        ed:da:88:67:99:43:06:fb:6f:4b:48:cc:92:81:cd:1e:16:4b:
        d1:b9:f5:e5:a0:3f:69:94:fe:85:7e:7e:d5:56:49:10:38:b2:
        88:f8:49:70:3f:7b:af:bf:9c:d7:52:e8:74:20:de:84:4f:1f:
        6e:5b:20:df:a9:b8:6a:33:e9:55:dc:bd:78:7c:23:72:77:f6:
        97:40:62:7b:2c:3e:61:aa:80:63:4b:89:41:52:1a:5a:31:b0:
        69:ca:af:40:49:a1:27:06:81:9f:d6:34:f8:36:55:72:03:a5:
        2e:0c:f8:17:74:8d:8f:57
-----BEGIN CERTIFICATE-----
MIIFmzCCA4OgAwIBAgIUJZTcSM4yvU3JtTEFTxhjE9fC+f8wDQYJKoZIhvcNAQEL
BQAwXTELMAkGA1UEBhMCTkExDTALBgNVBAgMBE5vbmUxDTALBgNVBAcMBE5vbmUx
GjAYBgNVBAMMEXRlc3Quc3RhZ2Vtb2xlLmV1MRQwEgYDVQQKDAtUZXN0TXVsbHZh
ZDAeFw0yMzA4MDExMzU0NTBaFw0yNDA3MzExMzU0NTBaMF0xCzAJBgNVBAYTAk5B
MQ0wCwYDVQQIDAROb25lMQ0wCwYDVQQHDAROb25lMRowGAYDVQQDDBF0ZXN0LnN0
YWdlbW9sZS5ldTEUMBIGA1UECgwLVGVzdE11bGx2YWQwggIiMA0GCSqGSIb3DQEB
AQUAA4ICDwAwggIKAoICAQDF+San6nfTpNx5MRPBvsUtWY0HFAm85AbE55EWG64x
JnaEEH2Js93Go3nGDP4f3f5iJiGdyQhAlLiaPBzOTP7crNf+R4RTlOUrBxM+hXuD
Pg73E2xl8NqdJr3EuBZTa4440O9T8DVUD9PciRwg+jWE/u3u8B5Ungl2lWL3Gml8
+keI+Mp1kOKwr9MY2eJklXMfCeVOqtNoyZaDw3SCUsPLiZXRMsLL7Cyg3mpVmmYq
yMQICV49aLWH+tzmznFH7Vv13xIjJ6J4Feq7crc9fmrPIAp2Oj/Z1+5lMGb18vIR
k9TdkjMNxdtuZwJ92Gunv8ae7BdoGMB9hGOs9nv2jd60RsIfl27qBdyyTXMyA8Sf
1cSrl60XFognrqqTE4FR69Vwnwi2RXfKAkKiYJXau2NFeGeUjSjEPnSBeT53DuiB
nHX0U7SfnrrHvbd+oTxB+kyUr8Cuo8rntH6KUH7ep7Zp9Rf4K5saruyg4kZJDTkc
XG3FaSyz/Z39EWyKvH+KFcrtB8Hr1x3L3HqNWLSDHHTtN8rgaJrOrnDnTUu8gmpZ
bqcNnHkoRpae+FZJUPPWMrAQwiHu1Mj+fm2yxJE7YE0Ub4Ih1RwwPlzZlOfMFzLS
9H0xf7p8AnSYdcBIswXDKRIzlB9FElx2Sqa3amtRj2LkU7SVlYFK19apRFFz8tEk
qQIDAQABo1MwUTAdBgNVHQ4EFgQUh4EHdt7lsXF1n8mRkJESl4+SEqcwHwYDVR0j
BBgwFoAUh4EHdt7lsXF1n8mRkJESl4+SEqcwDwYDVR0TAQH/BAUwAwEB/zANBgkq
hkiG9w0BAQsFAAOCAgEAfXZMa1eOtII/AJXrnYHrnr5cYMevOe3D80V4Wq+Dx6H9
OG6HZp5mOdqb1yEx1w+j0iYSgfBPymFmJjxUsAXkaGvpRXdu9ijddBhmBU5Zpuvr
XIVe4VHOe5EP1OXkCdJqpiyZQPq2wiLneN56ehr7VPKAALzuW5Epm3QkBMDDYoHy
LY+4rweITsnvAq6d1/tav40mmOWK/LYOtIn6jqtfKtcjJ9sC+F3IYpCjSPaNX7as
vhYioMcy0ZlCoPT+QPcNgCYomVD4MqF/WCnM4urBegXNf27DsPe8U7P+dHIN/Xik
hNLUL0oECdCCafk6rkCGTXLkpWcSKFiJ6gcBc+Z7o+GQwNToc/9J38c5M+EjxluA
GZqNGvzJTKuT5s5Lxz2AObwZ+lqCLNvQHSwFRdQBbs1U4m+PLamD1zDV5Gy8r77U
EGCgvth55esCCTjCkoEuWeeIcGHzUBCJQEUb4N90/v3dKypooYuK6ChELgcc4+UD
4DWrJcg6hA1HZ+c5FEfbjopHrv4tVVlPBheg7dqIZ5lDBvtvS0jMkoHNHhZL0bn1
5aA/aZT+hX5+1VZJEDiyiPhJcD97r7+c11LodCDehE8fblsg36m4ajPpVdy9eHwj
cnf2l0Bieyw+YaqAY0uJQVIaWjGwacqvQEmhJwaBn9Y0+DZVcgOlLgz4F3SNj1c=
-----END CERTIFICATE-----
